target datalayout = "e-m:e-p270:32:32-p271:32:32-p272:64:64-i64:64-i128:128-f80:128-n8:16:32:64-S128"
target triple = "x86_64-pc-linux-gnu"

%struct.ldbState = type { ptr, i32, i32, ptr, ptr, ptr, [64 x i32], i32, i32, i32, ptr, i32, i32, ptr, i64, i32 }

@ldb = dso_local global %struct.ldbState zeroinitializer, align 8

; Function Attrs: nounwind uwtable
define dso_local i32 @ldbRemoveChild(i32 noundef %0) #0 {
  %2 = alloca i32, align 4
  %3 = alloca i32, align 4
  %4 = alloca ptr, align 8
  %5 = alloca i32, align 4
  store i32 %0, ptr %3, align 4, !tbaa !19
  call void @llvm.lifetime.start.p0(i64 8, ptr %4) #14
  %6 = load ptr, ptr getelementptr inbounds nuw (%struct.ldbState, ptr @ldb, i32 0, i32 5), align 8, !tbaa !77
  %7 = load i32, ptr %3, align 4, !tbaa !19
  %8 = sext i32 %7 to i64
  %9 = inttoptr i64 %8 to ptr
  %10 = call ptr @listSearchKey(ptr noundef %6, ptr noundef %9)
  store ptr %10, ptr %4, align 8, !tbaa !138
  %11 = load ptr, ptr %4, align 8, !tbaa !138
  %12 = icmp ne ptr %11, null
  br i1 %12, label %13, label %16

13:                                               ; preds = %1
  %14 = load ptr, ptr getelementptr inbounds nuw (%struct.ldbState, ptr @ldb, i32 0, i32 5), align 8, !tbaa !77
  %15 = load ptr, ptr %4, align 8, !tbaa !138
  call void @listDelNode(ptr noundef %14, ptr noundef %15)
  store i32 1, ptr %2, align 4
  store i32 1, ptr %5, align 4
  br label %17

16:                                               ; preds = %1
  store i32 0, ptr %2, align 4
  store i32 1, ptr %5, align 4
  br label %17

17:                                               ; preds = %16, %13
  call void @llvm.lifetime.end.p0(i64 8, ptr %4) #14
  %18 = load i32, ptr %2, align 4
  ret i32 %18
}