; Function Attrs: nounwind uwtable
define dso_local range(i32 0, 2) i32 @ldbRemoveChild(i32 noundef %0) local_unnamed_addr #0 {
  %2 = load ptr, ptr getelementptr inbounds nuw (i8, ptr @ldb, i64 32), align 8, !tbaa !57
  %3 = sext i32 %0 to i64
  %4 = inttoptr i64 %3 to ptr
  %5 = tail call ptr @listSearchKey(ptr noundef %2, ptr noundef %4) #19
  %.not = icmp eq ptr %5, null
  br i1 %.not, label %8, label %6

6:                                                ; preds = %1
  %7 = load ptr, ptr getelementptr inbounds nuw (i8, ptr @ldb, i64 32), align 8, !tbaa !57
  tail call void @listDelNode(ptr noundef %7, ptr noundef nonnull %5) #19
  br label %8

8:                                                ; preds = %1, %6
  %.0 = phi i32 [ 1, %6 ], [ 0, %1 ]
  ret i32 %.0
}